; Function Attrs: null_pointer_is_valid sspstrong uwtable
define internal ptr @dtn_serv_value(ptr noundef %0) #2 {
  %2 = getelementptr inbounds nuw i8, ptr %0, i64 408
  %3 = load ptr, ptr %2, align 8
  %4 = load i32, ptr @proto_bp, align 4
  %5 = tail call ptr @p_get_proto_data(ptr noundef %3, ptr noundef %0, i32 noundef %4, i32 noundef 1)
  %.not = icmp eq ptr %5, null
  br i1 %.not, label %13, label %6

6:                                                ; preds = %1
  %7 = getelementptr inbounds nuw i8, ptr %5, i64 32
  %8 = load ptr, ptr %7, align 8
  %9 = getelementptr inbounds nuw i8, ptr %8, i64 16
  %10 = load ptr, ptr %9, align 8
  %11 = getelementptr inbounds nuw i8, ptr %10, i64 48
  %12 = load ptr, ptr %11, align 8
  %.not9 = icmp eq ptr %12, null
  br i1 %.not9, label %13, label %14

13:                                               ; preds = %6, %1
  br label %14

14:                                               ; preds = %6, %13
  %.0 = phi ptr [ null, %13 ], [ %12, %6 ]
  ret ptr %.0
}